target datalayout = "e-m:e-p270:32:32-p271:32:32-p272:64:64-i64:64-i128:128-f80:128-n8:16:32:64-S128"
target triple = "x86_64-pc-linux-gnu"

%"class.std::__cxx11::basic_string" = type { %"struct.std::__cxx11::basic_string<char>::_Alloc_hider", i64, %union.anon }
%"struct.std::__cxx11::basic_string<char>::_Alloc_hider" = type { ptr }
%union.anon = type { i64, [8 x i8] }
%"class.pxrInternal_v0_24__pxrReserved__::SdfLayerOffset" = type { double, double }

@.str.1 = private unnamed_addr constant [3 x i8] c" (\00", align 1
@.str.2 = private unnamed_addr constant [3 x i8] c"; \00", align 1
@.str.3 = private unnamed_addr constant [2 x i8] c")\00", align 1
@.str.15 = private unnamed_addr constant [2 x i8] c"\0A\00", align 1
@.str.22 = private unnamed_addr constant [14 x i8] c"offset = %s%s\00", align 1
@.str.23 = private unnamed_addr constant [1 x i8] zeroinitializer, align 1
@.str.24 = private unnamed_addr constant [13 x i8] c"scale = %s%s\00", align 1

; Function Attrs: mustprogress nounwind uwtable
define linkonce_odr noundef double @_ZNK32pxrInternal_v0_24__pxrReserved__14SdfLayerOffset8GetScaleEv(ptr noundef nonnull align 8 dereferenceable(16) %0) #4 comdat align 2 {
  %2 = alloca ptr, align 8
  store ptr %0, ptr %2, align 8
  %3 = load ptr, ptr %2, align 8
  %4 = getelementptr inbounds nuw %"class.pxrInternal_v0_24__pxrReserved__::SdfLayerOffset", ptr %3, i32 0, i32 1
  %5 = load double, ptr %4, align 8
  ret double %5
}

; Function Attrs: mustprogress nounwind uwtable
define linkonce_odr noundef double @_ZNK32pxrInternal_v0_24__pxrReserved__14SdfLayerOffset9GetOffsetEv(ptr noundef nonnull align 8 dereferenceable(16) %0) #4 comdat align 2 {
  %2 = alloca ptr, align 8
  store ptr %0, ptr %2, align 8
  %3 = load ptr, ptr %2, align 8
  %4 = getelementptr inbounds nuw %"class.pxrInternal_v0_24__pxrReserved__::SdfLayerOffset", ptr %3, i32 0, i32 0
  %5 = load double, ptr %4, align 8
  ret double %5
}

; Function Attrs: mustprogress uwtable
define linkonce_odr noundef zeroext i1 @_ZNK32pxrInternal_v0_24__pxrReserved__14SdfLayerOffsetneERKS0_(ptr noundef nonnull align 8 dereferenceable(16) %0, ptr noundef nonnull align 8 dereferenceable(16) %1) #0 comdat align 2 {
  %3 = alloca ptr, align 8
  %4 = alloca ptr, align 8
  store ptr %0, ptr %3, align 8
  store ptr %1, ptr %4, align 8
  %5 = load ptr, ptr %3, align 8
  %6 = load ptr, ptr %4, align 8
  %7 = call noundef zeroext i1 @_ZNK32pxrInternal_v0_24__pxrReserved__14SdfLayerOffseteqERKS0_(ptr noundef nonnull align 8 dereferenceable(16) %5, ptr noundef nonnull align 8 dereferenceable(16) %6)
  %8 = xor i1 %7, true
  ret i1 %8
}

; Function Attrs: mustprogress uwtable
define void @_ZN32pxrInternal_v0_24__pxrReserved__17Sdf_FileIOUtility16WriteLayerOffsetERNS_14Sdf_TextOutputEmbRKNS_14SdfLayerOffsetE(ptr noundef nonnull align 8 dereferenceable(48) %0, i64 noundef %1, i1 noundef zeroext %2, ptr noundef nonnull align 8 dereferenceable(16) %3) #0 align 2 personality ptr @__gxx_personality_v0 {
  %5 = alloca ptr, align 8
  %6 = alloca i64, align 8
  %7 = alloca i8, align 1
  %8 = alloca ptr, align 8
  %9 = alloca %"class.pxrInternal_v0_24__pxrReserved__::SdfLayerOffset", align 8
  %10 = alloca double, align 8
  %11 = alloca double, align 8
  %12 = alloca %"class.std::__cxx11::basic_string", align 8
  %13 = alloca ptr, align 8
  %14 = alloca i32, align 4
  %15 = alloca %"class.std::__cxx11::basic_string", align 8
  store ptr %0, ptr %5, align 8
  store i64 %1, ptr %6, align 8
  %16 = zext i1 %2 to i8
  store i8 %16, ptr %7, align 1
  store ptr %3, ptr %8, align 8
  %17 = load ptr, ptr %8, align 8
  call void @_ZN32pxrInternal_v0_24__pxrReserved__14SdfLayerOffsetC1Edd(ptr noundef nonnull align 8 dereferenceable(16) %9, double noundef 0.000000e+00, double noundef 1.000000e+00)
  %18 = call noundef zeroext i1 @_ZNK32pxrInternal_v0_24__pxrReserved__14SdfLayerOffsetneERKS0_(ptr noundef nonnull align 8 dereferenceable(16) %17, ptr noundef nonnull align 8 dereferenceable(16) %9)
  br i1 %18, label %19, label %86

19:                                               ; preds = %4
  %20 = load i8, ptr %7, align 1
  %21 = trunc i8 %20 to i1
  br i1 %21, label %24, label %22

22:                                               ; preds = %19
  %23 = load ptr, ptr %5, align 8
  call void (ptr, i64, ptr, ...) @_ZN32pxrInternal_v0_24__pxrReserved__17Sdf_FileIOUtility5WriteERNS_14Sdf_TextOutputEmPKcz(ptr noundef nonnull align 8 dereferenceable(48) %23, i64 noundef 0, ptr noundef @.str.1)
  br label %24

24:                                               ; preds = %22, %19
  %25 = load ptr, ptr %8, align 8
  %26 = call noundef double @_ZNK32pxrInternal_v0_24__pxrReserved__14SdfLayerOffset9GetOffsetEv(ptr noundef nonnull align 8 dereferenceable(16) %25)
  store double %26, ptr %10, align 8
  %27 = load ptr, ptr %8, align 8
  %28 = call noundef double @_ZNK32pxrInternal_v0_24__pxrReserved__14SdfLayerOffset8GetScaleEv(ptr noundef nonnull align 8 dereferenceable(16) %27)
  store double %28, ptr %11, align 8
  %29 = load double, ptr %10, align 8
  %30 = fcmp une double %29, 0.000000e+00
  br i1 %30, label %31, label %50

31:                                               ; preds = %24
  %32 = load ptr, ptr %5, align 8
  %33 = load i8, ptr %7, align 1
  %34 = trunc i8 %33 to i1
  br i1 %34, label %35, label %37

35:                                               ; preds = %31
  %36 = load i64, ptr %6, align 8
  br label %38

37:                                               ; preds = %31
  br label %38

38:                                               ; preds = %37, %35
  %39 = phi i64 [ %36, %35 ], [ 0, %37 ]
  %40 = load double, ptr %10, align 8
  call void @_ZN32pxrInternal_v0_24__pxrReserved__11TfStringifyB5cxx11Ed(ptr dead_on_unwind writable sret(%"class.std::__cxx11::basic_string") align 8 %12, double noundef %40)
  %41 = call noundef ptr @_ZNKSt7__cxx1112basic_stringIcSt11char_traitsIcESaIcEE5c_strEv(ptr noundef nonnull align 8 dereferenceable(32) %12) #13
  %42 = load i8, ptr %7, align 1
  %43 = trunc i8 %42 to i1
  %44 = select i1 %43, ptr @.str.15, ptr @.str.23
  invoke void (ptr, i64, ptr, ...) @_ZN32pxrInternal_v0_24__pxrReserved__17Sdf_FileIOUtility5WriteERNS_14Sdf_TextOutputEmPKcz(ptr noundef nonnull align 8 dereferenceable(48) %32, i64 noundef %39, ptr noundef @.str.22, ptr noundef %41, ptr noundef %44)
          to label %45 unwind label %46

45:                                               ; preds = %38
  call void @_ZNSt7__cxx1112basic_stringIcSt11char_traitsIcESaIcEED1Ev(ptr noundef nonnull align 8 dereferenceable(32) %12) #13
  br label %50

46:                                               ; preds = %38
  %47 = landingpad { ptr, i32 }
          cleanup
  %48 = extractvalue { ptr, i32 } %47, 0
  store ptr %48, ptr %13, align 8
  %49 = extractvalue { ptr, i32 } %47, 1
  store i32 %49, ptr %14, align 4
  call void @_ZNSt7__cxx1112basic_stringIcSt11char_traitsIcESaIcEED1Ev(ptr noundef nonnull align 8 dereferenceable(32) %12) #13
  br label %87

50:                                               ; preds = %45, %24
  %51 = load double, ptr %11, align 8
  %52 = fcmp une double %51, 1.000000e+00
  br i1 %52, label %53, label %80

53:                                               ; preds = %50
  %54 = load i8, ptr %7, align 1
  %55 = trunc i8 %54 to i1
  br i1 %55, label %61, label %56

56:                                               ; preds = %53
  %57 = load double, ptr %10, align 8
  %58 = fcmp une double %57, 0.000000e+00
  br i1 %58, label %59, label %61

59:                                               ; preds = %56
  %60 = load ptr, ptr %5, align 8
  call void (ptr, i64, ptr, ...) @_ZN32pxrInternal_v0_24__pxrReserved__17Sdf_FileIOUtility5WriteERNS_14Sdf_TextOutputEmPKcz(ptr noundef nonnull align 8 dereferenceable(48) %60, i64 noundef 0, ptr noundef @.str.2)
  br label %61

61:                                               ; preds = %59, %56, %53
  %62 = load ptr, ptr %5, align 8
  %63 = load i8, ptr %7, align 1
  %64 = trunc i8 %63 to i1
  br i1 %64, label %65, label %67

65:                                               ; preds = %61
  %66 = load i64, ptr %6, align 8
  br label %68

67:                                               ; preds = %61
  br label %68

68:                                               ; preds = %67, %65
  %69 = phi i64 [ %66, %65 ], [ 0, %67 ]
  %70 = load double, ptr %11, align 8
  call void @_ZN32pxrInternal_v0_24__pxrReserved__11TfStringifyB5cxx11Ed(ptr dead_on_unwind writable sret(%"class.std::__cxx11::basic_string") align 8 %15, double noundef %70)
  %71 = call noundef ptr @_ZNKSt7__cxx1112basic_stringIcSt11char_traitsIcESaIcEE5c_strEv(ptr noundef nonnull align 8 dereferenceable(32) %15) #13
  %72 = load i8, ptr %7, align 1
  %73 = trunc i8 %72 to i1
  %74 = select i1 %73, ptr @.str.15, ptr @.str.23
  invoke void (ptr, i64, ptr, ...) @_ZN32pxrInternal_v0_24__pxrReserved__17Sdf_FileIOUtility5WriteERNS_14Sdf_TextOutputEmPKcz(ptr noundef nonnull align 8 dereferenceable(48) %62, i64 noundef %69, ptr noundef @.str.24, ptr noundef %71, ptr noundef %74)
          to label %75 unwind label %76

75:                                               ; preds = %68
  call void @_ZNSt7__cxx1112basic_stringIcSt11char_traitsIcESaIcEED1Ev(ptr noundef nonnull align 8 dereferenceable(32) %15) #13
  br label %80

76:                                               ; preds = %68
  %77 = landingpad { ptr, i32 }
          cleanup
  %78 = extractvalue { ptr, i32 } %77, 0
  store ptr %78, ptr %13, align 8
  %79 = extractvalue { ptr, i32 } %77, 1
  store i32 %79, ptr %14, align 4
  call void @_ZNSt7__cxx1112basic_stringIcSt11char_traitsIcESaIcEED1Ev(ptr noundef nonnull align 8 dereferenceable(32) %15) #13
  br label %87

80:                                               ; preds = %75, %50
  %81 = load i8, ptr %7, align 1
  %82 = trunc i8 %81 to i1
  br i1 %82, label %85, label %83

83:                                               ; preds = %80
  %84 = load ptr, ptr %5, align 8
  call void (ptr, i64, ptr, ...) @_ZN32pxrInternal_v0_24__pxrReserved__17Sdf_FileIOUtility5WriteERNS_14Sdf_TextOutputEmPKcz(ptr noundef nonnull align 8 dereferenceable(48) %84, i64 noundef 0, ptr noundef @.str.3)
  br label %85

85:                                               ; preds = %83, %80
  br label %86

86:                                               ; preds = %85, %4
  ret void

87:                                               ; preds = %76, %46
  %88 = load ptr, ptr %13, align 8
  %89 = load i32, ptr %14, align 4
  %90 = insertvalue { ptr, i32 } poison, ptr %88, 0
  %91 = insertvalue { ptr, i32 } %90, i32 %89, 1
  resume { ptr, i32 } %91
}