; Function Attrs: mustprogress uwtable
define void @_ZN32pxrInternal_v0_24__pxrReserved__17Sdf_FileIOUtility16WriteLayerOffsetERNS_14Sdf_TextOutputEmbRKNS_14SdfLayerOffsetE(ptr noundef nonnull align 8 dereferenceable(48) %0, i64 noundef %1, i1 noundef zeroext %2, ptr noundef nonnull align 8 dereferenceable(16) %3) local_unnamed_addr #0 align 2 personality ptr @__gxx_personality_v0 {
  %5 = alloca %"class.pxrInternal_v0_24__pxrReserved__::SdfLayerOffset", align 8
  %6 = alloca %"class.std::__cxx11::basic_string", align 8
  %7 = alloca %"class.std::__cxx11::basic_string", align 8
  call void @_ZN32pxrInternal_v0_24__pxrReserved__14SdfLayerOffsetC1Edd(ptr noundef nonnull align 8 dereferenceable(16) %5, double noundef 0.000000e+00, double noundef 1.000000e+00)
  %8 = call noundef zeroext i1 @_ZNK32pxrInternal_v0_24__pxrReserved__14SdfLayerOffseteqERKS0_(ptr noundef nonnull align 8 dereferenceable(16) %3, ptr noundef nonnull align 8 dereferenceable(16) %5)
  br i1 %8, label %36, label %9

9:                                                ; preds = %4
  br i1 %2, label %11, label %10

10:                                               ; preds = %9
  call void (ptr, i64, ptr, ...) @_ZN32pxrInternal_v0_24__pxrReserved__17Sdf_FileIOUtility5WriteERNS_14Sdf_TextOutputEmPKcz(ptr noundef nonnull align 8 dereferenceable(48) %0, i64 noundef 0, ptr noundef nonnull @.str.1)
  br label %11

11:                                               ; preds = %10, %9
  %12 = load double, ptr %3, align 8
  %13 = getelementptr inbounds nuw i8, ptr %3, i64 8
  %14 = load double, ptr %13, align 8
  %15 = fcmp oeq double %12, 0.000000e+00
  br i1 %15, label %23, label %16

16:                                               ; preds = %11
  %17 = select i1 %2, i64 %1, i64 0
  call void @_ZN32pxrInternal_v0_24__pxrReserved__11TfStringifyB5cxx11Ed(ptr dead_on_unwind nonnull writable sret(%"class.std::__cxx11::basic_string") align 8 %6, double noundef %12)
  %18 = call noundef ptr @_ZNKSt7__cxx1112basic_stringIcSt11char_traitsIcESaIcEE5c_strEv(ptr noundef nonnull align 8 dereferenceable(32) %6) #18
  %19 = select i1 %2, ptr @.str.15, ptr @.str.23
  invoke void (ptr, i64, ptr, ...) @_ZN32pxrInternal_v0_24__pxrReserved__17Sdf_FileIOUtility5WriteERNS_14Sdf_TextOutputEmPKcz(ptr noundef nonnull align 8 dereferenceable(48) %0, i64 noundef %17, ptr noundef nonnull @.str.22, ptr noundef %18, ptr noundef nonnull %19)
          to label %20 unwind label %21

20:                                               ; preds = %16
  call void @_ZNSt7__cxx1112basic_stringIcSt11char_traitsIcESaIcEED1Ev(ptr noundef nonnull align 8 dereferenceable(32) %6) #18
  br label %23

21:                                               ; preds = %16
  %22 = landingpad { ptr, i32 }
          cleanup
  br label %37

23:                                               ; preds = %20, %11
  %24 = fcmp une double %14, 1.000000e+00
  br i1 %24, label %25, label %34

25:                                               ; preds = %23
  %or.cond.not = or i1 %2, %15
  br i1 %or.cond.not, label %27, label %26

26:                                               ; preds = %25
  call void (ptr, i64, ptr, ...) @_ZN32pxrInternal_v0_24__pxrReserved__17Sdf_FileIOUtility5WriteERNS_14Sdf_TextOutputEmPKcz(ptr noundef nonnull align 8 dereferenceable(48) %0, i64 noundef 0, ptr noundef nonnull @.str.2)
  br label %27

27:                                               ; preds = %26, %25
  %28 = select i1 %2, i64 %1, i64 0
  call void @_ZN32pxrInternal_v0_24__pxrReserved__11TfStringifyB5cxx11Ed(ptr dead_on_unwind nonnull writable sret(%"class.std::__cxx11::basic_string") align 8 %7, double noundef %14)
  %29 = call noundef ptr @_ZNKSt7__cxx1112basic_stringIcSt11char_traitsIcESaIcEE5c_strEv(ptr noundef nonnull align 8 dereferenceable(32) %7) #18
  %30 = select i1 %2, ptr @.str.15, ptr @.str.23
  invoke void (ptr, i64, ptr, ...) @_ZN32pxrInternal_v0_24__pxrReserved__17Sdf_FileIOUtility5WriteERNS_14Sdf_TextOutputEmPKcz(ptr noundef nonnull align 8 dereferenceable(48) %0, i64 noundef %28, ptr noundef nonnull @.str.24, ptr noundef %29, ptr noundef nonnull %30)
          to label %31 unwind label %32

31:                                               ; preds = %27
  call void @_ZNSt7__cxx1112basic_stringIcSt11char_traitsIcESaIcEED1Ev(ptr noundef nonnull align 8 dereferenceable(32) %7) #18
  br label %34

32:                                               ; preds = %27
  %33 = landingpad { ptr, i32 }
          cleanup
  br label %37

34:                                               ; preds = %31, %23
  br i1 %2, label %36, label %35

35:                                               ; preds = %34
  call void (ptr, i64, ptr, ...) @_ZN32pxrInternal_v0_24__pxrReserved__17Sdf_FileIOUtility5WriteERNS_14Sdf_TextOutputEmPKcz(ptr noundef nonnull align 8 dereferenceable(48) %0, i64 noundef 0, ptr noundef nonnull @.str.3)
  br label %36

36:                                               ; preds = %34, %35, %4
  ret void

37:                                               ; preds = %32, %21
  %.sink = phi ptr [ %7, %32 ], [ %6, %21 ]
  %.pn = phi { ptr, i32 } [ %33, %32 ], [ %22, %21 ]
  call void @_ZNSt7__cxx1112basic_stringIcSt11char_traitsIcESaIcEED1Ev(ptr noundef nonnull align 8 dereferenceable(32) %.sink) #18
  resume { ptr, i32 } %.pn
}